target datalayout = "e-m:e-p270:32:32-p271:32:32-p272:64:64-i64:64-i128:128-f80:128-n8:16:32:64-S128"
target triple = "x86_64-pc-linux-gnu"

%struct.lexbor_shs_hash_t = type { i32, i32, i32 }

@lxb_encoding_multi_hash_jis0208 = external constant [11349 x %struct.lexbor_shs_hash_t], align 16

; Function Attrs: nounwind uwtable
define internal ptr @lxb_encoding_encode_shift_jis_index(i32 noundef %0) #0 {
  %2 = alloca ptr, align 8
  %3 = alloca i32, align 4
  %4 = alloca ptr, align 8
  store i32 %0, ptr %3, align 4
  %5 = load i32, ptr %3, align 4
  %6 = urem i32 %5, 9253
  %7 = add i32 %6, 1
  %8 = zext i32 %7 to i64
  %9 = getelementptr inbounds [11349 x %struct.lexbor_shs_hash_t], ptr @lxb_encoding_multi_hash_jis0208, i64 0, i64 %8
  store ptr %9, ptr %4, align 8
  br label %10

10:                                               ; preds = %33, %1
  %11 = load ptr, ptr %4, align 8
  %12 = getelementptr inbounds %struct.lexbor_shs_hash_t, ptr %11, i32 0, i32 0
  %13 = load i32, ptr %12, align 4
  %14 = load i32, ptr %3, align 4
  %15 = icmp eq i32 %13, %14
  br i1 %15, label %16, label %27

16:                                               ; preds = %10
  %17 = load ptr, ptr %4, align 8
  %18 = getelementptr inbounds %struct.lexbor_shs_hash_t, ptr %17, i32 0, i32 1
  %19 = load i32, ptr %18, align 4
  %20 = zext i32 %19 to i64
  %21 = trunc i64 %20 to i32
  %22 = sub i32 %21, 8272
  %23 = icmp ugt i32 %22, 563
  br i1 %23, label %24, label %26

24:                                               ; preds = %16
  %25 = load ptr, ptr %4, align 8
  store ptr %25, ptr %2, align 8
  br label %37

26:                                               ; preds = %16
  br label %27

27:                                               ; preds = %26, %10
  %28 = load ptr, ptr %4, align 8
  %29 = getelementptr inbounds %struct.lexbor_shs_hash_t, ptr %28, i32 0, i32 2
  %30 = load i32, ptr %29, align 4
  %31 = zext i32 %30 to i64
  %32 = getelementptr inbounds [11349 x %struct.lexbor_shs_hash_t], ptr @lxb_encoding_multi_hash_jis0208, i64 0, i64 %31
  store ptr %32, ptr %4, align 8
  br label %33

33:                                               ; preds = %27
  %34 = load ptr, ptr %4, align 8
  %35 = icmp ne ptr %34, @lxb_encoding_multi_hash_jis0208
  br i1 %35, label %10, label %36

36:                                               ; preds = %33
  store ptr null, ptr %2, align 8
  br label %37

37:                                               ; preds = %36, %24
  %38 = load ptr, ptr %2, align 8
  ret ptr %38
}

; Function Attrs: nounwind uwtable
define hidden signext i8 @lxb_encoding_encode_shift_jis_single(ptr noundef %0, ptr noundef %1, ptr noundef %2, i32 noundef %3) #0 {
  %5 = alloca i8, align 1
  %6 = alloca ptr, align 8
  %7 = alloca ptr, align 8
  %8 = alloca ptr, align 8
  %9 = alloca i32, align 4
  %10 = alloca i32, align 4
  %11 = alloca i32, align 4
  %12 = alloca ptr, align 8
  store ptr %0, ptr %6, align 8
  store ptr %1, ptr %7, align 8
  store ptr %2, ptr %8, align 8
  store i32 %3, ptr %9, align 4
  %13 = load i32, ptr %9, align 4
  %14 = icmp ule i32 %13, 128
  br i1 %14, label %15, label %21

15:                                               ; preds = %4
  %16 = load i32, ptr %9, align 4
  %17 = trunc i32 %16 to i8
  %18 = load ptr, ptr %7, align 8
  %19 = load ptr, ptr %18, align 8
  %20 = getelementptr inbounds i8, ptr %19, i32 1
  store ptr %20, ptr %18, align 8
  store i8 %17, ptr %19, align 1
  store i8 1, ptr %5, align 1
  br label %88

21:                                               ; preds = %4
  %22 = load i32, ptr %9, align 4
  %23 = sub i32 %22, 65377
  %24 = icmp ule i32 %23, 62
  br i1 %24, label %25, label %33

25:                                               ; preds = %21
  %26 = load i32, ptr %9, align 4
  %27 = sub i32 %26, 65377
  %28 = add i32 %27, 161
  %29 = trunc i32 %28 to i8
  %30 = load ptr, ptr %7, align 8
  %31 = load ptr, ptr %30, align 8
  %32 = getelementptr inbounds i8, ptr %31, i32 1
  store ptr %32, ptr %30, align 8
  store i8 %29, ptr %31, align 1
  store i8 1, ptr %5, align 1
  br label %88

33:                                               ; preds = %21
  %34 = load i32, ptr %9, align 4
  switch i32 %34, label %44 [
    i32 165, label %35
    i32 8254, label %39
    i32 8722, label %43
  ]

35:                                               ; preds = %33
  %36 = load ptr, ptr %7, align 8
  %37 = load ptr, ptr %36, align 8
  %38 = getelementptr inbounds i8, ptr %37, i32 1
  store ptr %38, ptr %36, align 8
  store i8 92, ptr %37, align 1
  store i8 1, ptr %5, align 1
  br label %88

39:                                               ; preds = %33
  %40 = load ptr, ptr %7, align 8
  %41 = load ptr, ptr %40, align 8
  %42 = getelementptr inbounds i8, ptr %41, i32 1
  store ptr %42, ptr %40, align 8
  store i8 126, ptr %41, align 1
  store i8 1, ptr %5, align 1
  br label %88

43:                                               ; preds = %33
  store i32 65293, ptr %9, align 4
  br label %44

44:                                               ; preds = %43, %33
  %45 = load i32, ptr %9, align 4
  %46 = call ptr @lxb_encoding_encode_shift_jis_index(i32 noundef %45)
  store ptr %46, ptr %12, align 8
  %47 = load ptr, ptr %12, align 8
  %48 = icmp eq ptr %47, null
  br i1 %48, label %49, label %50

49:                                               ; preds = %44
  store i8 -1, ptr %5, align 1
  br label %88

50:                                               ; preds = %44
  %51 = load ptr, ptr %7, align 8
  %52 = load ptr, ptr %51, align 8
  %53 = getelementptr inbounds i8, ptr %52, i64 2
  %54 = load ptr, ptr %8, align 8
  %55 = icmp ugt ptr %53, %54
  br i1 %55, label %56, label %57

56:                                               ; preds = %50
  store i8 -2, ptr %5, align 1
  br label %88

57:                                               ; preds = %50
  %58 = load ptr, ptr %12, align 8
  %59 = getelementptr inbounds %struct.lexbor_shs_hash_t, ptr %58, i32 0, i32 1
  %60 = load i32, ptr %59, align 4
  %61 = zext i32 %60 to i64
  %62 = trunc i64 %61 to i32
  %63 = udiv i32 %62, 188
  store i32 %63, ptr %10, align 4
  %64 = load ptr, ptr %12, align 8
  %65 = getelementptr inbounds %struct.lexbor_shs_hash_t, ptr %64, i32 0, i32 1
  %66 = load i32, ptr %65, align 4
  %67 = zext i32 %66 to i64
  %68 = trunc i64 %67 to i32
  %69 = urem i32 %68, 188
  store i32 %69, ptr %11, align 4
  %70 = load i32, ptr %10, align 4
  %71 = load i32, ptr %10, align 4
  %72 = icmp ult i32 %71, 31
  %73 = select i1 %72, i32 129, i32 193
  %74 = add i32 %70, %73
  %75 = trunc i32 %74 to i8
  %76 = load ptr, ptr %7, align 8
  %77 = load ptr, ptr %76, align 8
  %78 = getelementptr inbounds i8, ptr %77, i32 1
  store ptr %78, ptr %76, align 8
  store i8 %75, ptr %77, align 1
  %79 = load i32, ptr %11, align 4
  %80 = load i32, ptr %11, align 4
  %81 = icmp ult i32 %80, 63
  %82 = select i1 %81, i32 64, i32 65
  %83 = add i32 %79, %82
  %84 = trunc i32 %83 to i8
  %85 = load ptr, ptr %7, align 8
  %86 = load ptr, ptr %85, align 8
  %87 = getelementptr inbounds i8, ptr %86, i32 1
  store ptr %87, ptr %85, align 8
  store i8 %84, ptr %86, align 1
  store i8 2, ptr %5, align 1
  br label %88

88:                                               ; preds = %57, %56, %49, %39, %35, %25, %15
  %89 = load i8, ptr %5, align 1
  ret i8 %89
}