; Function Attrs: nofree norecurse nosync nounwind memory(write, argmem: readwrite, inaccessiblemem: none) uwtable
define hidden noundef signext i8 @lxb_encoding_encode_shift_jis_single(ptr nocapture noundef readnone %0, ptr nocapture noundef %1, ptr noundef readnone %2, i32 noundef %3) local_unnamed_addr #6 {
  %5 = icmp ult i32 %3, 129
  br i1 %5, label %6, label %10

6:                                                ; preds = %4
  %7 = trunc i32 %3 to i8
  %8 = load ptr, ptr %1, align 8
  %9 = getelementptr inbounds i8, ptr %8, i64 1
  store ptr %9, ptr %1, align 8
  store i8 %7, ptr %8, align 1
  br label %lxb_encoding_encode_shift_jis_index.exit.thread

10:                                               ; preds = %4
  %11 = add i32 %3, -65377
  %12 = icmp ult i32 %11, 63
  br i1 %12, label %13, label %18

13:                                               ; preds = %10
  %14 = trunc i32 %3 to i8
  %15 = add nuw i8 %14, 64
  %16 = load ptr, ptr %1, align 8
  %17 = getelementptr inbounds i8, ptr %16, i64 1
  store ptr %17, ptr %1, align 8
  store i8 %15, ptr %16, align 1
  br label %lxb_encoding_encode_shift_jis_index.exit.thread

18:                                               ; preds = %10
  switch i32 %3, label %26 [
    i32 165, label %19
    i32 8254, label %22
    i32 8722, label %25
  ]

19:                                               ; preds = %18
  %20 = load ptr, ptr %1, align 8
  %21 = getelementptr inbounds i8, ptr %20, i64 1
  store ptr %21, ptr %1, align 8
  store i8 92, ptr %20, align 1
  br label %lxb_encoding_encode_shift_jis_index.exit.thread

22:                                               ; preds = %18
  %23 = load ptr, ptr %1, align 8
  %24 = getelementptr inbounds i8, ptr %23, i64 1
  store ptr %24, ptr %1, align 8
  store i8 126, ptr %23, align 1
  br label %lxb_encoding_encode_shift_jis_index.exit.thread

25:                                               ; preds = %18
  br label %26

26:                                               ; preds = %25, %18
  %.021 = phi i32 [ %3, %18 ], [ 65293, %25 ]
  %27 = urem i32 %.021, 9253
  %28 = add nuw nsw i32 %27, 1
  br label %29

29:                                               ; preds = %37, %26
  %.pn.in.i = phi i32 [ %28, %26 ], [ %39, %37 ]
  %.pn.i = zext i32 %.pn.in.i to i64
  %.0.i = getelementptr inbounds [11349 x %struct.lexbor_shs_hash_t], ptr @lxb_encoding_multi_hash_jis0208, i64 0, i64 %.pn.i
  %30 = load i32, ptr %.0.i, align 4
  %31 = icmp eq i32 %30, %.021
  br i1 %31, label %32, label %37

32:                                               ; preds = %29
  %33 = getelementptr inbounds i8, ptr %.0.i, i64 4
  %34 = load i32, ptr %33, align 4
  %35 = add i32 %34, -8836
  %36 = icmp ult i32 %35, -564
  br i1 %36, label %lxb_encoding_encode_shift_jis_index.exit, label %37

37:                                               ; preds = %32, %29
  %38 = getelementptr inbounds i8, ptr %.0.i, i64 8
  %39 = load i32, ptr %38, align 4
  %.not.i = icmp eq i32 %39, 0
  br i1 %.not.i, label %lxb_encoding_encode_shift_jis_index.exit.thread, label %29

lxb_encoding_encode_shift_jis_index.exit:         ; preds = %32
  %40 = load ptr, ptr %1, align 8
  %41 = getelementptr inbounds i8, ptr %40, i64 2
  %42 = icmp ugt ptr %41, %2
  br i1 %42, label %lxb_encoding_encode_shift_jis_index.exit.thread, label %43

43:                                               ; preds = %lxb_encoding_encode_shift_jis_index.exit
  %44 = udiv i32 %34, 188
  %45 = urem i32 %34, 188
  %46 = icmp ult i32 %34, 5828
  %47 = select i1 %46, i32 129, i32 193
  %48 = add nuw nsw i32 %47, %44
  %49 = trunc i32 %48 to i8
  %50 = getelementptr inbounds i8, ptr %40, i64 1
  store ptr %50, ptr %1, align 8
  store i8 %49, ptr %40, align 1
  %51 = icmp ult i32 %45, 63
  %52 = select i1 %51, i32 64, i32 65
  %53 = add nuw nsw i32 %52, %45
  %54 = trunc i32 %53 to i8
  %55 = load ptr, ptr %1, align 8
  %56 = getelementptr inbounds i8, ptr %55, i64 1
  store ptr %56, ptr %1, align 8
  store i8 %54, ptr %55, align 1
  br label %lxb_encoding_encode_shift_jis_index.exit.thread

lxb_encoding_encode_shift_jis_index.exit.thread:  ; preds = %37, %lxb_encoding_encode_shift_jis_index.exit, %43, %22, %19, %13, %6
  %.0 = phi i8 [ 1, %6 ], [ 1, %13 ], [ 2, %43 ], [ 1, %22 ], [ 1, %19 ], [ -2, %lxb_encoding_encode_shift_jis_index.exit ], [ -1, %37 ]
  ret i8 %.0
}